target datalayout = "e-m:e-p270:32:32-p271:32:32-p272:64:64-i64:64-i128:128-f80:128-n8:16:32:64-S128"
target triple = "x86_64-pc-linux-gnu"

%struct.Dec_Graph_t_ = type { i32, i32, i32, i32, ptr, %struct.Dec_Edge_t_ }
%struct.Dec_Edge_t_ = type { i32 }
%struct.Dec_Node_t_ = type { %struct.Dec_Edge_t_, %struct.Dec_Edge_t_, %union.anon, i32 }
%union.anon = type { ptr }

@.str.2 = private unnamed_addr constant [2 x i8] c"\0A\00", align 1
@.str.3 = private unnamed_addr constant [2 x i8] c"(\00", align 1
@.str.4 = private unnamed_addr constant [2 x i8] c")\00", align 1
@.str.5 = private unnamed_addr constant [2 x i8] c" \00", align 1
@.str.6 = private unnamed_addr constant [4 x i8] c" + \00", align 1
@Dec_GraphPrintGetLeafName.Buffer = internal global [100 x i8] zeroinitializer, align 16
@.str.8 = private unnamed_addr constant [5 x i8] c"%s%s\00", align 1
@.str.9 = private unnamed_addr constant [2 x i8] c"!\00", align 1
@.str.10 = private unnamed_addr constant [1 x i8] zeroinitializer, align 1
@.str.11 = private unnamed_addr constant [3 x i8] c"%s\00", align 1

; Function Attrs: nounwind uwtable
define internal void @Dec_GraphPrintUpdatePos(ptr noundef %0, ptr noundef %1, i32 noundef %2) #0 {
  %4 = alloca ptr, align 8
  %5 = alloca ptr, align 8
  %6 = alloca i32, align 4
  %7 = alloca i32, align 4
  store ptr %0, ptr %4, align 8
  store ptr %1, ptr %5, align 8
  store i32 %2, ptr %6, align 4
  %8 = load ptr, ptr %5, align 8
  %9 = load i32, ptr %8, align 4
  %10 = load i32, ptr %6, align 4
  %11 = add nsw i32 %9, %10
  %12 = icmp slt i32 %11, 77
  br i1 %12, label %13, label %14

13:                                               ; preds = %3
  br label %28

14:                                               ; preds = %3
  %15 = load ptr, ptr %4, align 8
  %16 = call i32 (ptr, ptr, ...) @fprintf(ptr noundef %15, ptr noundef @.str.2) #5
  store i32 0, ptr %7, align 4
  br label %17

17:                                               ; preds = %23, %14
  %18 = load i32, ptr %7, align 4
  %19 = icmp slt i32 %18, 10
  br i1 %19, label %20, label %26

20:                                               ; preds = %17
  %21 = load ptr, ptr %4, align 8
  %22 = call i32 (ptr, ptr, ...) @fprintf(ptr noundef %21, ptr noundef @.str.5) #5
  br label %23

23:                                               ; preds = %20
  %24 = load i32, ptr %7, align 4
  %25 = add nsw i32 %24, 1
  store i32 %25, ptr %7, align 4
  br label %17, !llvm.loop !6

26:                                               ; preds = %17
  %27 = load ptr, ptr %5, align 8
  store i32 10, ptr %27, align 4
  br label %28

28:                                               ; preds = %26, %13
  ret void
}

; Function Attrs: nounwind uwtable
define internal i32 @Dec_GraphPrintGetLeafName(ptr noundef %0, i32 noundef %1, i32 noundef %2, ptr noundef %3) #0 {
  %5 = alloca ptr, align 8
  %6 = alloca i32, align 4
  %7 = alloca i32, align 4
  %8 = alloca ptr, align 8
  store ptr %0, ptr %5, align 8
  store i32 %1, ptr %6, align 4
  store i32 %2, ptr %7, align 4
  store ptr %3, ptr %8, align 8
  %9 = load i32, ptr %7, align 4
  %10 = icmp ne i32 %9, 0
  %11 = select i1 %10, ptr @.str.9, ptr @.str.10
  %12 = load ptr, ptr %8, align 8
  %13 = load i32, ptr %6, align 4
  %14 = sext i32 %13 to i64
  %15 = getelementptr inbounds ptr, ptr %12, i64 %14
  %16 = load ptr, ptr %15, align 8
  %17 = call i32 (ptr, ptr, ...) @sprintf(ptr noundef @Dec_GraphPrintGetLeafName.Buffer, ptr noundef @.str.8, ptr noundef %11, ptr noundef %16) #5
  %18 = load ptr, ptr %5, align 8
  %19 = call i32 (ptr, ptr, ...) @fprintf(ptr noundef %18, ptr noundef @.str.11, ptr noundef @Dec_GraphPrintGetLeafName.Buffer) #5
  %20 = call i64 @strlen(ptr noundef @Dec_GraphPrintGetLeafName.Buffer) #4
  %21 = trunc i64 %20 to i32
  ret i32 %21
}

; Function Attrs: nounwind uwtable
define internal i32 @Dec_GraphNodeInt(ptr noundef %0, ptr noundef %1) #0 {
  %3 = alloca ptr, align 8
  %4 = alloca ptr, align 8
  store ptr %0, ptr %3, align 8
  store ptr %1, ptr %4, align 8
  %5 = load ptr, ptr %4, align 8
  %6 = load ptr, ptr %3, align 8
  %7 = getelementptr inbounds %struct.Dec_Graph_t_, ptr %6, i32 0, i32 4
  %8 = load ptr, ptr %7, align 8
  %9 = ptrtoint ptr %5 to i64
  %10 = ptrtoint ptr %8 to i64
  %11 = sub i64 %9, %10
  %12 = sdiv exact i64 %11, 24
  %13 = trunc i64 %12 to i32
  ret i32 %13
}

; Function Attrs: nounwind uwtable
define internal i32 @Dec_GraphNodeIsVar(ptr noundef %0, ptr noundef %1) #0 {
  %3 = alloca ptr, align 8
  %4 = alloca ptr, align 8
  store ptr %0, ptr %3, align 8
  store ptr %1, ptr %4, align 8
  %5 = load ptr, ptr %3, align 8
  %6 = load ptr, ptr %4, align 8
  %7 = call i32 @Dec_GraphNodeInt(ptr noundef %5, ptr noundef %6)
  %8 = load ptr, ptr %3, align 8
  %9 = getelementptr inbounds %struct.Dec_Graph_t_, ptr %8, i32 0, i32 1
  %10 = load i32, ptr %9, align 4
  %11 = icmp slt i32 %7, %10
  %12 = zext i1 %11 to i32
  ret i32 %12
}

; Function Attrs: nounwind uwtable
define internal ptr @Dec_GraphNode(ptr noundef %0, i32 noundef %1) #0 {
  %3 = alloca ptr, align 8
  %4 = alloca i32, align 4
  store ptr %0, ptr %3, align 8
  store i32 %1, ptr %4, align 4
  %5 = load ptr, ptr %3, align 8
  %6 = getelementptr inbounds %struct.Dec_Graph_t_, ptr %5, i32 0, i32 4
  %7 = load ptr, ptr %6, align 8
  %8 = load i32, ptr %4, align 4
  %9 = sext i32 %8 to i64
  %10 = getelementptr inbounds %struct.Dec_Node_t_, ptr %7, i64 %9
  ret ptr %10
}

; Function Attrs: nounwind uwtable
define void @Dec_GraphPrint2_rec(ptr noundef %0, ptr noundef %1, ptr noundef %2, i32 noundef %3, ptr noundef %4, ptr noundef %5, i32 noundef %6) #0 {
  %8 = alloca ptr, align 8
  %9 = alloca ptr, align 8
  %10 = alloca ptr, align 8
  %11 = alloca i32, align 4
  %12 = alloca ptr, align 8
  %13 = alloca ptr, align 8
  %14 = alloca i32, align 4
  %15 = alloca ptr, align 8
  %16 = alloca ptr, align 8
  store ptr %0, ptr %8, align 8
  store ptr %1, ptr %9, align 8
  store ptr %2, ptr %10, align 8
  store i32 %3, ptr %11, align 4
  store ptr %4, ptr %12, align 8
  store ptr %5, ptr %13, align 8
  store i32 %6, ptr %14, align 4
  %17 = load ptr, ptr %9, align 8
  %18 = load ptr, ptr %10, align 8
  %19 = getelementptr inbounds %struct.Dec_Node_t_, ptr %18, i32 0, i32 0
  %20 = load i32, ptr %19, align 8
  %21 = lshr i32 %20, 1
  %22 = and i32 %21, 1073741823
  %23 = call ptr @Dec_GraphNode(ptr noundef %17, i32 noundef %22)
  store ptr %23, ptr %15, align 8
  %24 = load ptr, ptr %9, align 8
  %25 = load ptr, ptr %10, align 8
  %26 = getelementptr inbounds %struct.Dec_Node_t_, ptr %25, i32 0, i32 1
  %27 = load i32, ptr %26, align 4
  %28 = lshr i32 %27, 1
  %29 = and i32 %28, 1073741823
  %30 = call ptr @Dec_GraphNode(ptr noundef %24, i32 noundef %29)
  store ptr %30, ptr %16, align 8
  %31 = load ptr, ptr %9, align 8
  %32 = load ptr, ptr %10, align 8
  %33 = call i32 @Dec_GraphNodeIsVar(ptr noundef %31, ptr noundef %32)
  %34 = icmp ne i32 %33, 0
  br i1 %34, label %35, label %46

35:                                               ; preds = %7
  %36 = load ptr, ptr %8, align 8
  %37 = load ptr, ptr %9, align 8
  %38 = load ptr, ptr %10, align 8
  %39 = call i32 @Dec_GraphNodeInt(ptr noundef %37, ptr noundef %38)
  %40 = load i32, ptr %11, align 4
  %41 = load ptr, ptr %12, align 8
  %42 = call i32 @Dec_GraphPrintGetLeafName(ptr noundef %36, i32 noundef %39, i32 noundef %40, ptr noundef %41)
  %43 = load ptr, ptr %13, align 8
  %44 = load i32, ptr %43, align 4
  %45 = add nsw i32 %44, %42
  store i32 %45, ptr %43, align 4
  br label %182

46:                                               ; preds = %7
  %47 = load ptr, ptr %10, align 8
  %48 = getelementptr inbounds %struct.Dec_Node_t_, ptr %47, i32 0, i32 3
  %49 = load i32, ptr %48, align 8
  %50 = lshr i32 %49, 14
  %51 = and i32 %50, 1
  %52 = icmp ne i32 %51, 0
  br i1 %52, label %144, label %53

53:                                               ; preds = %46
  %54 = load ptr, ptr %15, align 8
  %55 = getelementptr inbounds %struct.Dec_Node_t_, ptr %54, i32 0, i32 3
  %56 = load i32, ptr %55, align 8
  %57 = lshr i32 %56, 14
  %58 = and i32 %57, 1
  %59 = icmp ne i32 %58, 0
  br i1 %59, label %72, label %60

60:                                               ; preds = %53
  %61 = load ptr, ptr %8, align 8
  %62 = load ptr, ptr %9, align 8
  %63 = load ptr, ptr %15, align 8
  %64 = load ptr, ptr %10, align 8
  %65 = getelementptr inbounds %struct.Dec_Node_t_, ptr %64, i32 0, i32 3
  %66 = load i32, ptr %65, align 8
  %67 = lshr i32 %66, 15
  %68 = and i32 %67, 1
  %69 = load ptr, ptr %12, align 8
  %70 = load ptr, ptr %13, align 8
  %71 = load i32, ptr %14, align 4
  call void @Dec_GraphPrint_rec(ptr noundef %61, ptr noundef %62, ptr noundef %63, i32 noundef %68, ptr noundef %69, ptr noundef %70, i32 noundef %71)
  br label %94

72:                                               ; preds = %53
  %73 = load ptr, ptr %8, align 8
  %74 = call i32 (ptr, ptr, ...) @fprintf(ptr noundef %73, ptr noundef @.str.3) #5
  %75 = load ptr, ptr %13, align 8
  %76 = load i32, ptr %75, align 4
  %77 = add nsw i32 %76, 1
  store i32 %77, ptr %75, align 4
  %78 = load ptr, ptr %8, align 8
  %79 = load ptr, ptr %9, align 8
  %80 = load ptr, ptr %15, align 8
  %81 = load ptr, ptr %10, align 8
  %82 = getelementptr inbounds %struct.Dec_Node_t_, ptr %81, i32 0, i32 3
  %83 = load i32, ptr %82, align 8
  %84 = lshr i32 %83, 15
  %85 = and i32 %84, 1
  %86 = load ptr, ptr %12, align 8
  %87 = load ptr, ptr %13, align 8
  %88 = load i32, ptr %14, align 4
  call void @Dec_GraphPrint_rec(ptr noundef %78, ptr noundef %79, ptr noundef %80, i32 noundef %85, ptr noundef %86, ptr noundef %87, i32 noundef %88)
  %89 = load ptr, ptr %8, align 8
  %90 = call i32 (ptr, ptr, ...) @fprintf(ptr noundef %89, ptr noundef @.str.4) #5
  %91 = load ptr, ptr %13, align 8
  %92 = load i32, ptr %91, align 4
  %93 = add nsw i32 %92, 1
  store i32 %93, ptr %91, align 4
  br label %94

94:                                               ; preds = %72, %60
  %95 = load ptr, ptr %8, align 8
  %96 = call i32 (ptr, ptr, ...) @fprintf(ptr noundef %95, ptr noundef @.str.5) #5
  %97 = load ptr, ptr %13, align 8
  %98 = load i32, ptr %97, align 4
  %99 = add nsw i32 %98, 1
  store i32 %99, ptr %97, align 4
  %100 = load ptr, ptr %8, align 8
  %101 = load ptr, ptr %13, align 8
  %102 = load i32, ptr %14, align 4
  call void @Dec_GraphPrintUpdatePos(ptr noundef %100, ptr noundef %101, i32 noundef %102)
  %103 = load ptr, ptr %16, align 8
  %104 = getelementptr inbounds %struct.Dec_Node_t_, ptr %103, i32 0, i32 3
  %105 = load i32, ptr %104, align 8
  %106 = lshr i32 %105, 14
  %107 = and i32 %106, 1
  %108 = icmp ne i32 %107, 0
  br i1 %108, label %121, label %109

109:                                              ; preds = %94
  %110 = load ptr, ptr %8, align 8
  %111 = load ptr, ptr %9, align 8
  %112 = load ptr, ptr %16, align 8
  %113 = load ptr, ptr %10, align 8
  %114 = getelementptr inbounds %struct.Dec_Node_t_, ptr %113, i32 0, i32 3
  %115 = load i32, ptr %114, align 8
  %116 = lshr i32 %115, 16
  %117 = and i32 %116, 1
  %118 = load ptr, ptr %12, align 8
  %119 = load ptr, ptr %13, align 8
  %120 = load i32, ptr %14, align 4
  call void @Dec_GraphPrint_rec(ptr noundef %110, ptr noundef %111, ptr noundef %112, i32 noundef %117, ptr noundef %118, ptr noundef %119, i32 noundef %120)
  br label %143

121:                                              ; preds = %94
  %122 = load ptr, ptr %8, align 8
  %123 = call i32 (ptr, ptr, ...) @fprintf(ptr noundef %122, ptr noundef @.str.3) #5
  %124 = load ptr, ptr %13, align 8
  %125 = load i32, ptr %124, align 4
  %126 = add nsw i32 %125, 1
  store i32 %126, ptr %124, align 4
  %127 = load ptr, ptr %8, align 8
  %128 = load ptr, ptr %9, align 8
  %129 = load ptr, ptr %16, align 8
  %130 = load ptr, ptr %10, align 8
  %131 = getelementptr inbounds %struct.Dec_Node_t_, ptr %130, i32 0, i32 3
  %132 = load i32, ptr %131, align 8
  %133 = lshr i32 %132, 16
  %134 = and i32 %133, 1
  %135 = load ptr, ptr %12, align 8
  %136 = load ptr, ptr %13, align 8
  %137 = load i32, ptr %14, align 4
  call void @Dec_GraphPrint_rec(ptr noundef %127, ptr noundef %128, ptr noundef %129, i32 noundef %134, ptr noundef %135, ptr noundef %136, i32 noundef %137)
  %138 = load ptr, ptr %8, align 8
  %139 = call i32 (ptr, ptr, ...) @fprintf(ptr noundef %138, ptr noundef @.str.4) #5
  %140 = load ptr, ptr %13, align 8
  %141 = load i32, ptr %140, align 4
  %142 = add nsw i32 %141, 1
  store i32 %142, ptr %140, align 4
  br label %143

143:                                              ; preds = %121, %109
  br label %182

144:                                              ; preds = %46
  %145 = load ptr, ptr %10, align 8
  %146 = getelementptr inbounds %struct.Dec_Node_t_, ptr %145, i32 0, i32 3
  %147 = load i32, ptr %146, align 8
  %148 = lshr i32 %147, 14
  %149 = and i32 %148, 1
  %150 = icmp ne i32 %149, 0
  br i1 %150, label %151, label %182

151:                                              ; preds = %144
  %152 = load ptr, ptr %8, align 8
  %153 = load ptr, ptr %9, align 8
  %154 = load ptr, ptr %15, align 8
  %155 = load ptr, ptr %10, align 8
  %156 = getelementptr inbounds %struct.Dec_Node_t_, ptr %155, i32 0, i32 3
  %157 = load i32, ptr %156, align 8
  %158 = lshr i32 %157, 15
  %159 = and i32 %158, 1
  %160 = load ptr, ptr %12, align 8
  %161 = load ptr, ptr %13, align 8
  %162 = load i32, ptr %14, align 4
  call void @Dec_GraphPrint_rec(ptr noundef %152, ptr noundef %153, ptr noundef %154, i32 noundef %159, ptr noundef %160, ptr noundef %161, i32 noundef %162)
  %163 = load ptr, ptr %8, align 8
  %164 = call i32 (ptr, ptr, ...) @fprintf(ptr noundef %163, ptr noundef @.str.6) #5
  %165 = load ptr, ptr %13, align 8
  %166 = load i32, ptr %165, align 4
  %167 = add nsw i32 %166, 3
  store i32 %167, ptr %165, align 4
  %168 = load ptr, ptr %8, align 8
  %169 = load ptr, ptr %13, align 8
  %170 = load i32, ptr %14, align 4
  call void @Dec_GraphPrintUpdatePos(ptr noundef %168, ptr noundef %169, i32 noundef %170)
  %171 = load ptr, ptr %8, align 8
  %172 = load ptr, ptr %9, align 8
  %173 = load ptr, ptr %16, align 8
  %174 = load ptr, ptr %10, align 8
  %175 = getelementptr inbounds %struct.Dec_Node_t_, ptr %174, i32 0, i32 3
  %176 = load i32, ptr %175, align 8
  %177 = lshr i32 %176, 16
  %178 = and i32 %177, 1
  %179 = load ptr, ptr %12, align 8
  %180 = load ptr, ptr %13, align 8
  %181 = load i32, ptr %14, align 4
  call void @Dec_GraphPrint_rec(ptr noundef %171, ptr noundef %172, ptr noundef %173, i32 noundef %178, ptr noundef %179, ptr noundef %180, i32 noundef %181)
  br label %182

182:                                              ; preds = %151, %144, %143, %35
  ret void
}