; Function Attrs: nofree nounwind uwtable
define void @Dec_GraphPrint2_rec(ptr noundef %0, ptr noundef %1, ptr noundef %2, i32 noundef %3, ptr noundef %4, ptr noundef %5, i32 noundef %6) local_unnamed_addr #4 {
  %8 = load i32, ptr %2, align 8
  %9 = lshr i32 %8, 1
  %10 = and i32 %9, 1073741823
  %11 = getelementptr i8, ptr %1, i64 16
  %.val = load ptr, ptr %11, align 8
  %12 = zext nneg i32 %10 to i64
  %13 = getelementptr inbounds nuw %struct.Dec_Node_t_, ptr %.val, i64 %12
  %14 = getelementptr inbounds nuw i8, ptr %2, i64 4
  %15 = load i32, ptr %14, align 4
  %16 = lshr i32 %15, 1
  %17 = and i32 %16, 1073741823
  %18 = zext nneg i32 %17 to i64
  %19 = getelementptr inbounds nuw %struct.Dec_Node_t_, ptr %.val, i64 %18
  %20 = getelementptr i8, ptr %1, i64 4
  %.val84 = load i32, ptr %20, align 4
  %21 = ptrtoint ptr %2 to i64
  %22 = ptrtoint ptr %.val to i64
  %23 = sub i64 %21, %22
  %24 = sdiv exact i64 %23, 24
  %25 = trunc i64 %24 to i32
  %.not = icmp sgt i32 %.val84, %25
  br i1 %.not, label %26, label %36

26:                                               ; preds = %7
  %.not.i = icmp eq i32 %3, 0
  %27 = select i1 %.not.i, ptr @.str.10, ptr @.str.9
  %sext = shl i64 %24, 32
  %28 = ashr exact i64 %sext, 29
  %29 = getelementptr inbounds i8, ptr %4, i64 %28
  %30 = load ptr, ptr %29, align 8
  %31 = tail call i32 (ptr, ptr, ...) @sprintf(ptr noundef nonnull dereferenceable(1) @Dec_GraphPrintGetLeafName.Buffer, ptr noundef nonnull dereferenceable(1) @.str.8, ptr noundef nonnull %27, ptr noundef %30) #7
  %fputs.i = tail call i32 @fputs(ptr nonnull @Dec_GraphPrintGetLeafName.Buffer, ptr %0)
  %32 = tail call i64 @strlen(ptr noundef nonnull dereferenceable(1) @Dec_GraphPrintGetLeafName.Buffer) #8
  %33 = trunc i64 %32 to i32
  %34 = load i32, ptr %5, align 4
  %35 = add nsw i32 %34, %33
  store i32 %35, ptr %5, align 4
  br label %94

36:                                               ; preds = %7
  %37 = getelementptr inbounds nuw i8, ptr %2, i64 16
  %38 = load i32, ptr %37, align 8
  %39 = and i32 %38, 16384
  %.not75 = icmp eq i32 %39, 0
  br i1 %.not75, label %40, label %79

40:                                               ; preds = %36
  %41 = getelementptr inbounds nuw i8, ptr %13, i64 16
  %42 = load i32, ptr %41, align 8
  %43 = and i32 %42, 16384
  %.not76 = icmp eq i32 %43, 0
  br i1 %.not76, label %44, label %47

44:                                               ; preds = %40
  %45 = lshr i32 %38, 15
  %46 = and i32 %45, 1
  tail call fastcc void @Dec_GraphPrint_rec(ptr noundef %0, ptr noundef nonnull %1, ptr noundef nonnull %13, i32 noundef %46, ptr noundef %4, ptr noundef %5)
  br label %55

47:                                               ; preds = %40
  %fputc = tail call i32 @fputc(i32 40, ptr %0)
  %48 = load i32, ptr %5, align 4
  %49 = add nsw i32 %48, 1
  store i32 %49, ptr %5, align 4
  %50 = load i32, ptr %37, align 8
  %51 = lshr i32 %50, 15
  %52 = and i32 %51, 1
  tail call fastcc void @Dec_GraphPrint_rec(ptr noundef %0, ptr noundef nonnull %1, ptr noundef nonnull %13, i32 noundef %52, ptr noundef %4, ptr noundef nonnull %5)
  %fputc77 = tail call i32 @fputc(i32 41, ptr %0)
  %53 = load i32, ptr %5, align 4
  %54 = add nsw i32 %53, 1
  store i32 %54, ptr %5, align 4
  br label %55

55:                                               ; preds = %47, %44
  %fputc78 = tail call i32 @fputc(i32 32, ptr %0)
  %56 = load i32, ptr %5, align 4
  %57 = add nsw i32 %56, 1
  store i32 %57, ptr %5, align 4
  %58 = add nsw i32 %57, %6
  %59 = icmp slt i32 %58, 77
  br i1 %59, label %Dec_GraphPrintUpdatePos.exit, label %60

60:                                               ; preds = %55
  %fputc.i = tail call i32 @fputc(i32 10, ptr %0)
  br label %61

61:                                               ; preds = %61, %60
  %.07.i = phi i32 [ 0, %60 ], [ %62, %61 ]
  %fputc6.i = tail call i32 @fputc(i32 32, ptr %0)
  %62 = add nuw nsw i32 %.07.i, 1
  %exitcond.not.i = icmp eq i32 %62, 10
  br i1 %exitcond.not.i, label %63, label %61, !llvm.loop !6

63:                                               ; preds = %61
  store i32 10, ptr %5, align 4
  br label %Dec_GraphPrintUpdatePos.exit

Dec_GraphPrintUpdatePos.exit:                     ; preds = %55, %63
  %64 = getelementptr inbounds nuw i8, ptr %19, i64 16
  %65 = load i32, ptr %64, align 8
  %66 = and i32 %65, 16384
  %.not79 = icmp eq i32 %66, 0
  br i1 %.not79, label %67, label %71

67:                                               ; preds = %Dec_GraphPrintUpdatePos.exit
  %68 = load i32, ptr %37, align 8
  %69 = lshr i32 %68, 16
  %70 = and i32 %69, 1
  tail call fastcc void @Dec_GraphPrint_rec(ptr noundef %0, ptr noundef %1, ptr noundef nonnull %19, i32 noundef %70, ptr noundef %4, ptr noundef nonnull %5)
  br label %94

71:                                               ; preds = %Dec_GraphPrintUpdatePos.exit
  %fputc80 = tail call i32 @fputc(i32 40, ptr %0)
  %72 = load i32, ptr %5, align 4
  %73 = add nsw i32 %72, 1
  store i32 %73, ptr %5, align 4
  %74 = load i32, ptr %37, align 8
  %75 = lshr i32 %74, 16
  %76 = and i32 %75, 1
  tail call fastcc void @Dec_GraphPrint_rec(ptr noundef %0, ptr noundef %1, ptr noundef nonnull %19, i32 noundef %76, ptr noundef %4, ptr noundef nonnull %5)
  %fputc81 = tail call i32 @fputc(i32 41, ptr %0)
  %77 = load i32, ptr %5, align 4
  %78 = add nsw i32 %77, 1
  store i32 %78, ptr %5, align 4
  br label %94

79:                                               ; preds = %36
  %80 = lshr i32 %38, 15
  %81 = and i32 %80, 1
  tail call fastcc void @Dec_GraphPrint_rec(ptr noundef %0, ptr noundef nonnull %1, ptr noundef %13, i32 noundef %81, ptr noundef %4, ptr noundef %5)
  %82 = tail call i64 @fwrite(ptr nonnull @.str.6, i64 3, i64 1, ptr %0)
  %83 = load i32, ptr %5, align 4
  %84 = add nsw i32 %83, 3
  store i32 %84, ptr %5, align 4
  %85 = add nsw i32 %84, %6
  %86 = icmp slt i32 %85, 77
  br i1 %86, label %Dec_GraphPrintUpdatePos.exit90, label %87

87:                                               ; preds = %79
  %fputc.i86 = tail call i32 @fputc(i32 10, ptr %0)
  br label %88

88:                                               ; preds = %88, %87
  %.07.i87 = phi i32 [ 0, %87 ], [ %89, %88 ]
  %fputc6.i88 = tail call i32 @fputc(i32 32, ptr %0)
  %89 = add nuw nsw i32 %.07.i87, 1
  %exitcond.not.i89 = icmp eq i32 %89, 10
  br i1 %exitcond.not.i89, label %90, label %88, !llvm.loop !6

90:                                               ; preds = %88
  store i32 10, ptr %5, align 4
  br label %Dec_GraphPrintUpdatePos.exit90

Dec_GraphPrintUpdatePos.exit90:                   ; preds = %79, %90
  %91 = load i32, ptr %37, align 8
  %92 = lshr i32 %91, 16
  %93 = and i32 %92, 1
  tail call fastcc void @Dec_GraphPrint_rec(ptr noundef %0, ptr noundef nonnull %1, ptr noundef %19, i32 noundef %93, ptr noundef %4, ptr noundef nonnull %5)
  br label %94

94:                                               ; preds = %67, %71, %Dec_GraphPrintUpdatePos.exit90, %26
  ret void
}